; Function Attrs: mustprogress uwtable
define hidden noundef zeroext i1 @_ZN6google8protobuf10TextFormat6Parser15ParseFromStringERKNSt7__cxx1112basic_stringIcSt11char_traitsIcESaIcEEEPNS0_7MessageE(ptr noundef nonnull readonly align 8 captures(none) dereferenceable(36) %0, ptr noundef nonnull readonly align 8 captures(none) dereferenceable(32) %1, ptr noundef %2) local_unnamed_addr #3 align 2 personality ptr @__gxx_personality_v0 {
  %4 = alloca %"class.google::protobuf::io::ArrayInputStream", align 8
  %5 = getelementptr inbounds nuw i8, ptr %1, i64 8
  %6 = load i64, ptr %5, align 8, !tbaa !9
  %7 = load ptr, ptr %0, align 8, !tbaa !141
  %8 = tail call fastcc noundef zeroext i1 @_ZN6google8protobuf12_GLOBAL__N_119CheckParseInputSizeENS0_20stringpiece_internal11StringPieceEPNS0_2io14ErrorCollectorE(i64 %6, ptr noundef %7)
  br i1 %8, label %9, label %14

9:                                                ; preds = %3
  call void @llvm.lifetime.start.p0(i64 32, ptr nonnull %4) #31
  %10 = load ptr, ptr %1, align 8, !tbaa !48
  %11 = load i64, ptr %5, align 8, !tbaa !9
  %12 = trunc i64 %11 to i32
  call void @_ZN6google8protobuf2io16ArrayInputStreamC1EPKvii(ptr noundef nonnull align 8 dereferenceable(32) %4, ptr noundef %10, i32 noundef %12, i32 noundef -1)
  %13 = call noundef zeroext i1 @_ZN6google8protobuf10TextFormat6Parser5ParseEPNS0_2io19ZeroCopyInputStreamEPNS0_7MessageE(ptr noundef nonnull align 8 dereferenceable(36) %0, ptr noundef nonnull %4, ptr noundef %2)
  call void @llvm.lifetime.end.p0(i64 32, ptr nonnull %4) #31
  br label %14

14:                                               ; preds = %3, %9
  %.0 = phi i1 [ %13, %9 ], [ false, %3 ]
  ret i1 %.0
}